target datalayout = "e-m:e-p270:32:32-p271:32:32-p272:64:64-i64:64-i128:128-f80:128-n8:16:32:64-S128"
target triple = "x86_64-pc-linux-gnu"

; Function Attrs: nounwind uwtable
define hidden i32 @mbedtls_gcm_crypt_and_tag(ptr noundef %0, i32 noundef %1, i64 noundef %2, ptr noundef %3, i64 noundef %4, ptr noundef %5, i64 noundef %6, ptr noundef %7, ptr noundef %8, i64 noundef %9, ptr noundef %10) #0 {
  %12 = alloca i32, align 4
  %13 = alloca ptr, align 8
  %14 = alloca i32, align 4
  %15 = alloca i64, align 8
  %16 = alloca ptr, align 8
  %17 = alloca i64, align 8
  %18 = alloca ptr, align 8
  %19 = alloca i64, align 8
  %20 = alloca ptr, align 8
  %21 = alloca ptr, align 8
  %22 = alloca i64, align 8
  %23 = alloca ptr, align 8
  %24 = alloca i32, align 4
  %25 = alloca i64, align 8
  %26 = alloca i32, align 4
  store ptr %0, ptr %13, align 8, !tbaa !3
  store i32 %1, ptr %14, align 4, !tbaa !8
  store i64 %2, ptr %15, align 8, !tbaa !14
  store ptr %3, ptr %16, align 8, !tbaa !10
  store i64 %4, ptr %17, align 8, !tbaa !14
  store ptr %5, ptr %18, align 8, !tbaa !10
  store i64 %6, ptr %19, align 8, !tbaa !14
  store ptr %7, ptr %20, align 8, !tbaa !10
  store ptr %8, ptr %21, align 8, !tbaa !10
  store i64 %9, ptr %22, align 8, !tbaa !14
  store ptr %10, ptr %23, align 8, !tbaa !10
  call void @llvm.lifetime.start.p0(i64 4, ptr %24) #9
  store i32 -110, ptr %24, align 4, !tbaa !8
  call void @llvm.lifetime.start.p0(i64 8, ptr %25) #9
  %27 = load ptr, ptr %13, align 8, !tbaa !3
  %28 = load i32, ptr %14, align 4, !tbaa !8
  %29 = load ptr, ptr %16, align 8, !tbaa !10
  %30 = load i64, ptr %17, align 8, !tbaa !14
  %31 = call i32 @mbedtls_gcm_starts(ptr noundef %27, i32 noundef %28, ptr noundef %29, i64 noundef %30)
  store i32 %31, ptr %24, align 4, !tbaa !8
  %32 = icmp ne i32 %31, 0
  br i1 %32, label %33, label %35

33:                                               ; preds = %11
  %34 = load i32, ptr %24, align 4, !tbaa !8
  store i32 %34, ptr %12, align 4
  store i32 1, ptr %26, align 4
  br label %62

35:                                               ; preds = %11
  %36 = load ptr, ptr %13, align 8, !tbaa !3
  %37 = load ptr, ptr %18, align 8, !tbaa !10
  %38 = load i64, ptr %19, align 8, !tbaa !14
  %39 = call i32 @mbedtls_gcm_update_ad(ptr noundef %36, ptr noundef %37, i64 noundef %38)
  store i32 %39, ptr %24, align 4, !tbaa !8
  %40 = icmp ne i32 %39, 0
  br i1 %40, label %41, label %43

41:                                               ; preds = %35
  %42 = load i32, ptr %24, align 4, !tbaa !8
  store i32 %42, ptr %12, align 4
  store i32 1, ptr %26, align 4
  br label %62

43:                                               ; preds = %35
  %44 = load ptr, ptr %13, align 8, !tbaa !3
  %45 = load ptr, ptr %20, align 8, !tbaa !10
  %46 = load i64, ptr %15, align 8, !tbaa !14
  %47 = load ptr, ptr %21, align 8, !tbaa !10
  %48 = load i64, ptr %15, align 8, !tbaa !14
  %49 = call i32 @mbedtls_gcm_update(ptr noundef %44, ptr noundef %45, i64 noundef %46, ptr noundef %47, i64 noundef %48, ptr noundef %25)
  store i32 %49, ptr %24, align 4, !tbaa !8
  %50 = icmp ne i32 %49, 0
  br i1 %50, label %51, label %53

51:                                               ; preds = %43
  %52 = load i32, ptr %24, align 4, !tbaa !8
  store i32 %52, ptr %12, align 4
  store i32 1, ptr %26, align 4
  br label %62

53:                                               ; preds = %43
  %54 = load ptr, ptr %13, align 8, !tbaa !3
  %55 = load ptr, ptr %23, align 8, !tbaa !10
  %56 = load i64, ptr %22, align 8, !tbaa !14
  %57 = call i32 @mbedtls_gcm_finish(ptr noundef %54, ptr noundef null, i64 noundef 0, ptr noundef %25, ptr noundef %55, i64 noundef %56)
  store i32 %57, ptr %24, align 4, !tbaa !8
  %58 = icmp ne i32 %57, 0
  br i1 %58, label %59, label %61

59:                                               ; preds = %53
  %60 = load i32, ptr %24, align 4, !tbaa !8
  store i32 %60, ptr %12, align 4
  store i32 1, ptr %26, align 4
  br label %62

61:                                               ; preds = %53
  store i32 0, ptr %12, align 4
  store i32 1, ptr %26, align 4
  br label %62

62:                                               ; preds = %61, %59, %51, %41, %33
  call void @llvm.lifetime.end.p0(i64 8, ptr %25) #9
  call void @llvm.lifetime.end.p0(i64 4, ptr %24) #9
  %63 = load i32, ptr %12, align 4
  ret i32 %63
}